target datalayout = "e-m:e-p270:32:32-p271:32:32-p272:64:64-i64:64-i128:128-f80:128-n8:16:32:64-S128"
target triple = "x86_64-pc-linux-gnu"

%"class.std::vector" = type { %"struct.std::_Vector_base" }
%"struct.std::_Vector_base" = type { %"struct.std::_Vector_base<float, std::allocator<float>>::_Vector_impl" }
%"struct.std::_Vector_base<float, std::allocator<float>>::_Vector_impl" = type { %"struct.std::_Vector_base<float, std::allocator<float>>::_Vector_impl_data" }
%"struct.std::_Vector_base<float, std::allocator<float>>::_Vector_impl_data" = type { ptr, ptr, ptr }
%"struct.faiss::(anonymous namespace)::GenericDistanceComputer" = type { %"struct.faiss::DistanceComputer", i64, ptr, %"class.std::vector", ptr }
%"struct.faiss::DistanceComputer" = type { ptr }

; Function Attrs: mustprogress nounwind uwtable
define linkonce_odr noundef ptr @_ZNKSt6vectorIfSaIfEE11_M_data_ptrIfEEPT_S4_(ptr noundef nonnull align 8 dereferenceable(24) %0, ptr noundef %1) #0 comdat align 2 {
  %3 = alloca ptr, align 8
  %4 = alloca ptr, align 8
  store ptr %0, ptr %3, align 8, !tbaa !62
  store ptr %1, ptr %4, align 8, !tbaa !11
  %5 = load ptr, ptr %4, align 8, !tbaa !11
  ret ptr %5
}

; Function Attrs: mustprogress nounwind uwtable
define linkonce_odr noundef ptr @_ZNSt6vectorIfSaIfEE4dataEv(ptr noundef nonnull align 8 dereferenceable(24) %0) #0 comdat align 2 {
  %2 = alloca ptr, align 8
  store ptr %0, ptr %2, align 8, !tbaa !62
  %3 = load ptr, ptr %2, align 8
  %4 = getelementptr inbounds nuw %"struct.std::_Vector_base", ptr %3, i32 0, i32 0
  %5 = getelementptr inbounds nuw %"struct.std::_Vector_base<float, std::allocator<float>>::_Vector_impl_data", ptr %4, i32 0, i32 0
  %6 = load ptr, ptr %5, align 8, !tbaa !66
  %7 = call noundef ptr @_ZNKSt6vectorIfSaIfEE11_M_data_ptrIfEEPT_S4_(ptr noundef nonnull align 8 dereferenceable(24) %3, ptr noundef %6) #16
  ret ptr %7
}

; Function Attrs: mustprogress uwtable
define internal noundef float @_ZN5faiss12_GLOBAL__N_123GenericDistanceComputer13symmetric_disEll(ptr noundef nonnull align 8 dereferenceable(56) %0, i64 noundef %1, i64 noundef %2) unnamed_addr #1 align 2 {
  %4 = alloca ptr, align 8
  %5 = alloca i64, align 8
  %6 = alloca i64, align 8
  store ptr %0, ptr %4, align 8, !tbaa !102
  store i64 %1, ptr %5, align 8, !tbaa !9
  store i64 %2, ptr %6, align 8, !tbaa !9
  %7 = load ptr, ptr %4, align 8
  %8 = getelementptr inbounds nuw %"struct.faiss::(anonymous namespace)::GenericDistanceComputer", ptr %7, i32 0, i32 2
  %9 = load ptr, ptr %8, align 8, !tbaa !113
  %10 = load i64, ptr %5, align 8, !tbaa !9
  %11 = getelementptr inbounds nuw %"struct.faiss::(anonymous namespace)::GenericDistanceComputer", ptr %7, i32 0, i32 3
  %12 = call noundef ptr @_ZNSt6vectorIfSaIfEE4dataEv(ptr noundef nonnull align 8 dereferenceable(24) %11) #16
  %13 = load ptr, ptr %9, align 8, !tbaa !21
  %14 = getelementptr inbounds ptr, ptr %13, i64 10
  %15 = load ptr, ptr %14, align 8
  call void %15(ptr noundef nonnull align 8 dereferenceable(36) %9, i64 noundef %10, ptr noundef %12)
  %16 = getelementptr inbounds nuw %"struct.faiss::(anonymous namespace)::GenericDistanceComputer", ptr %7, i32 0, i32 2
  %17 = load ptr, ptr %16, align 8, !tbaa !113
  %18 = load i64, ptr %6, align 8, !tbaa !9
  %19 = getelementptr inbounds nuw %"struct.faiss::(anonymous namespace)::GenericDistanceComputer", ptr %7, i32 0, i32 3
  %20 = call noundef ptr @_ZNSt6vectorIfSaIfEE4dataEv(ptr noundef nonnull align 8 dereferenceable(24) %19) #16
  %21 = getelementptr inbounds nuw %"struct.faiss::(anonymous namespace)::GenericDistanceComputer", ptr %7, i32 0, i32 1
  %22 = load i64, ptr %21, align 8, !tbaa !104
  %23 = getelementptr inbounds nuw float, ptr %20, i64 %22
  %24 = load ptr, ptr %17, align 8, !tbaa !21
  %25 = getelementptr inbounds ptr, ptr %24, i64 10
  %26 = load ptr, ptr %25, align 8
  call void %26(ptr noundef nonnull align 8 dereferenceable(36) %17, i64 noundef %18, ptr noundef %23)
  %27 = getelementptr inbounds nuw %"struct.faiss::(anonymous namespace)::GenericDistanceComputer", ptr %7, i32 0, i32 3
  %28 = call noundef ptr @_ZNSt6vectorIfSaIfEE4dataEv(ptr noundef nonnull align 8 dereferenceable(24) %27) #16
  %29 = getelementptr inbounds nuw %"struct.faiss::(anonymous namespace)::GenericDistanceComputer", ptr %7, i32 0, i32 1
  %30 = load i64, ptr %29, align 8, !tbaa !104
  %31 = getelementptr inbounds nuw float, ptr %28, i64 %30
  %32 = getelementptr inbounds nuw %"struct.faiss::(anonymous namespace)::GenericDistanceComputer", ptr %7, i32 0, i32 3
  %33 = call noundef ptr @_ZNSt6vectorIfSaIfEE4dataEv(ptr noundef nonnull align 8 dereferenceable(24) %32) #16
  %34 = getelementptr inbounds nuw %"struct.faiss::(anonymous namespace)::GenericDistanceComputer", ptr %7, i32 0, i32 1
  %35 = load i64, ptr %34, align 8, !tbaa !104
  %36 = call noundef float @_ZN5faiss10fvec_L2sqrEPKfS1_m(ptr noundef %31, ptr noundef %33, i64 noundef %35)
  ret float %36
}