; Function Attrs: mustprogress uwtable
define internal noundef float @_ZN5faiss12_GLOBAL__N_123GenericDistanceComputer13symmetric_disEll(ptr noundef nonnull readonly align 8 captures(none) dereferenceable(56) %0, i64 noundef %1, i64 noundef %2) unnamed_addr #3 align 2 {
  %4 = getelementptr inbounds nuw i8, ptr %0, i64 16
  %5 = load ptr, ptr %4, align 8, !tbaa !49
  %6 = getelementptr inbounds nuw i8, ptr %0, i64 24
  %7 = load ptr, ptr %6, align 8, !tbaa !44
  %8 = load ptr, ptr %5, align 8, !tbaa !18
  %9 = getelementptr inbounds nuw i8, ptr %8, i64 80
  %10 = load ptr, ptr %9, align 8
  tail call void %10(ptr noundef nonnull align 8 dereferenceable(36) %5, i64 noundef %1, ptr noundef %7)
  %11 = load ptr, ptr %4, align 8, !tbaa !49
  %12 = load ptr, ptr %6, align 8, !tbaa !44
  %13 = getelementptr inbounds nuw i8, ptr %0, i64 8
  %14 = load i64, ptr %13, align 8, !tbaa !37
  %15 = getelementptr inbounds nuw float, ptr %12, i64 %14
  %16 = load ptr, ptr %11, align 8, !tbaa !18
  %17 = getelementptr inbounds nuw i8, ptr %16, i64 80
  %18 = load ptr, ptr %17, align 8
  tail call void %18(ptr noundef nonnull align 8 dereferenceable(36) %11, i64 noundef %2, ptr noundef %15)
  %19 = load ptr, ptr %6, align 8, !tbaa !44
  %20 = load i64, ptr %13, align 8, !tbaa !37
  %21 = getelementptr inbounds nuw float, ptr %19, i64 %20
  %22 = tail call noundef float @_ZN5faiss10fvec_L2sqrEPKfS1_m(ptr noundef %21, ptr noundef %19, i64 noundef %20)
  ret float %22
}